(dp0
S'mc'
p1
(dp2
S'pf'
p3
(lp4
I0
aI0
aI0
aI0
aI0
aI0
aI0
aI0
aI0
aI0
aI0
aI0
aI0
aI0
aI0
aF0.4814814814814815
aF1.0
aI0
asS'pd'
p5
(lp6
I0
aI0
aI0
aI0
aI0
aI0
aI0
aI0
aI0
aI0
aI0
aI0
aI0
aI0
aI0
aF0.2539912917271408
aF1.0
aI0
assS'cm'
p7
(dp8
g3
(lp9
I0
aF0.7380952380952381
aI0
aI0
aI0
aI0
aI0
aI0
aI0
aI0
aI0
aF0.4285714285714286
aI0
aI0
aI0
aF0.04761904761904767
aF0.5238095238095238
aF1.0
asg5
(lp10
I0
aF0.8899082568807339
aI0
aI0
aI0
aI0
aI0
aI0
aI0
aI0
aI0
aF0.5458715596330275
aI0
aI0
aI0
aF0.1743119266055046
aF0.7350917431192661
aF1.0
assS'camel'
p11
(dp12
g3
(lp13
I0
aI0
aI0
aI0
aI0
aI0
aI0
aI0
aI0
aI0
aF0.9872727272727273
aF1.0
aI0
asg5
(lp14
I0
aI0
aI0
aI0
aI0
aI0
aI0
aI0
aI0
aI0
aF0.9405940594059405
aF1.0
aI0
assS'Zxing'
p15
(dp16
g3
(lp17
I0
aI0
aF0.5084745762711864
aI0
aI0
aF0.9491525423728814
aI0
aI0
aI0
aI0
aI0
aI0
aI0
aF0.9915254237288136
aI0
aI0
aI0
aI0
aI0
aF0.9067796610169492
asg5
(lp18
I0
aI0
aF0.5373665480427047
aI0
aI0
aF0.9679715302491103
aI0
aI0
aI0
aI0
aI0
aI0
aI0
aF0.9750889679715302
aI0
aI0
aI0
aI0
aI0
aF0.9359430604982206
assS'ant'
p19
(dp20
g3
(lp21
I0
aI0
aI0
aI0
aI0
aI0
aI0
aI0
aI0
aI0
aF0.7717391304347826
aF0.939297124600639
aF0.6484375
asg5
(lp22
I0
aI0
aI0
aI0
aI0
aI0
aI0
aI0
aI0
aI0
aF0.7436661698956781
aF0.977645305514158
aF0.7511177347242921
assS'jm'
p23
(dp24
g3
(lp25
I0
aI0
aI0
aI0
aI0
aI0
aI0
aI0
aI0
aI0
aI0
aI0
aI0
aI0
aI0
aI0
aI0
aI0
asg5
(lp26
I0
aI0
aI0
aI0
aI0
aI0
aI0
aI0
aI0
aI0
aI0
aI0
aI0
aI0
aI0
aI0
aI0
aI0
assS'jedit'
p27
(dp28
g3
(lp29
I0
aI0
aI0
aI0
aI0
aI0
aI0
aI0
aI0
aI0
aF0.4624277456647399
aF0.6666666666666667
aI0
asg5
(lp30
I0
aI0
aI0
aI0
aI0
aI0
aI0
aI0
aI0
aI0
aF0.5802213001383126
aF0.73582295988935
aI0
assS'poi'
p31
(dp32
g3
(lp33
I0
aI0
aI0
aI0
aI0
aI0
aI0
aI0
aI0
aI0
aI0
aF0.884493670886076
aI0
asg5
(lp34
I0
aI0
aI0
aI0
aI0
aI0
aI0
aI0
aI0
aI0
aI0
aF0.8926974664679582
aI0
assS'JDT'
p35
(dp36
g3
(lp37
I0
aI0
aI0
aI0
aI0
aI0
aI0
aI0
aI0
aI0
aI0
aI0
aI0
aI0
aI0
aF0.6310679611650485
aF1.0
aI0
asg5
(lp38
I0
aI0
aI0
aI0
aI0
aI0
aI0
aI0
aI0
aI0
aI0
aI0
aI0
aI0
aI0
aF0.8305941845764855
aF1.0
aI0
assS'PDE'
p39
(dp40
g3
(lp41
I0
aI0
aI0
aI0
aI0
aI0
aI0
aI0
aI0
aI0
aI0
aI0
aI0
aI0
aF0.9665071770334929
aF0.7703349282296651
aF0.8086124401913876
aI0
asg5
(lp42
I0
aI0
aI0
aI0
aI0
aI0
aI0
aI0
aI0
aI0
aI0
aI0
aI0
aI0
aF0.9813664596273292
aF0.8392857142857143
aF0.9510869565217391
aI0
assS'EQ'
p43
(dp44
g3
(lp45
I0
aI0
aI0
aI0
aI0
aI0
aI0
aI0
aI0
aI0
aI0
aI0
aI0
aI0
aI0
aF0.9922480620155039
aF0.8294573643410853
aF0.8372093023255813
asg5
(lp46
I0
aI0
aI0
aI0
aI0
aI0
aI0
aI0
aI0
aI0
aI0
aI0
aI0
aI0
aI0
aF1.0
aF0.9641025641025641
aF0.9435897435897436
assS'ivy'
p47
(dp48
g3
(lp49
I0
aI0
aI0
aF0.956140350877193
aI0
aI0
aI0
aI0
aI0
aI0
aF0.6375
aF0.7590361445783133
aI0
asg5
(lp50
I0
aI0
aI0
aF0.9042735042735043
aI0
aI0
aI0
aI0
aI0
aI0
aF0.5487179487179488
aF0.8324786324786325
aI0
assS'kc'
p51
(dp52
g3
(lp53
I0
aI0
aI0
aF0.2222222222222222
aI0
aI0
aI0
aI0
aI0
aI0
aI0
aF0.36111111111111116
aI0
aI0
aI0
aF0.9722222222222222
aF0.5833333333333333
aI0
asg5
(lp54
I0
aI0
aI0
aF0.3625
aI0
aI0
aI0
aI0
aI0
aI0
aI0
aF0.30625
aI0
aI0
aI0
aF0.975
aF0.51875
aI0
assS'LC'
p55
(dp56
g3
(lp57
I0
aF0.7142857142857143
aI0
aI0
aI0
aI0
aF1.0
aI0
aI0
aF1.0
aF1.0
aI0
aI0
aI0
aI0
aF1.0
aF1.0
aI0
asg5
(lp58
I0
aF0.682615629984051
aI0
aI0
aI0
aI0
aF0.9792663476874003
aI0
aI0
aF1.0
aF1.0
aI0
aI0
aI0
aI0
aF1.0
aF1.0
aI0
assS'xerces'
p59
(dp60
g3
(lp61
I0
aI0
aI0
aI0
aI0
aI0
aI0
aI0
aI0
aI0
aI0
aF0.9772357723577236
aI0
asg5
(lp62
I0
aI0
aI0
aI0
aI0
aI0
aI0
aI0
aI0
aI0
aI0
aF0.9150657229524772
aI0
assS'xalan'
p63
(dp64
g3
(lp65
I0
aI0
aI0
aI0
aI0
aI0
aI0
aI0
aI0
aI0
aF0.9033180778032037
aF1.0
aI0
asg5
(lp66
I0
aI0
aI0
aI0
aI0
aI0
aI0
aI0
aI0
aI0
aF0.8844121532364597
aF1.0
aI0
assS'ML'
p67
(dp68
g3
(lp69
I0
aI0
aI0
aI0
aI0
aI0
aI0
aI0
aI0
aI0
aI0
aI0
aI0
aI0
aI0
aI0
aF0.9224489795918367
aI0
asg5
(lp70
I0
aI0
aI0
aI0
aI0
aI0
aI0
aI0
aI0
aI0
aI0
aI0
aI0
aI0
aI0
aI0
aF0.9820655534941249
aI0
assS'Safe'
p71
(dp72
g3
(lp73
F0.7727272727272727
aF0.2272727272727273
aF0.0
aF0.0
aF0.5
aF1.0
aF0.7
aF1.0
aF0.8888888888888888
aF1.0
aF1.0
aF0.35
aF1.0
aI0
aF1.0
aF0.9090909090909091
aI0
aF1.0
aF1.0
aF0.8636363636363636
asg5
(lp74
F0.5
aF0.2647058823529412
aF0.17647058823529413
aF0.14705882352941177
aF0.5588235294117647
aF1.0
aF0.7352941176470589
aF1.0
aF0.6470588235294118
aF1.0
aF1.0
aF0.5294117647058824
aF1.0
aI0
aF1.0
aF0.8235294117647058
aI0
aF1.0
aF1.0
aF0.9705882352941176
assS'lucene'
p75
(dp76
g3
(lp77
I0
aI0
aI0
aF0.6804123711340206
aI0
aI0
aI0
aI0
aI0
aI0
aF0.9852216748768473
aF0.9907192575406032
aI0
asg5
(lp78
I0
aI0
aI0
aF0.5261627906976745
aI0
aI0
aI0
aI0
aI0
aI0
aF0.9767441860465116
aF0.9912790697674418
aI0
assS'mw'
p79
(dp80
g3
(lp81
I0
aI0
aI0
aI0
aI0
aI0
aI0
aI0
aI0
aI0
aI0
aI0
aI0
aI0
aI0
aF0.4814814814814815
aF1.0
aI0
asg5
(lp82
I0
aI0
aI0
aI0
aI0
aI0
aI0
aI0
aI0
aI0
aI0
aI0
aI0
aI0
aI0
aF0.2539912917271408
aF1.0
aI0
assS'Apache'
p83
(dp84
g3
(lp85
F0.4693877551020408
aF0.9387755102040817
aF0.05102040816326525
aF0.04081632653061229
aI0
aF0.85
aF0.4565217391304348
aF0.9894736842105263
aI0
aF1.0
aF0.9690721649484536
aF0.8452380952380952
aI0
aF1.0
aF0.9484536082474226
aF1.0
aI0
aF1.0
aF1.0
aF0.9795918367346939
asg5
(lp86
F0.6979166666666666
aF0.90625
aF0.15625
aF0.10416666666666667
aI0
aF0.7916666666666666
aF0.4583333333333333
aF0.9895833333333334
aI0
aF1.0
aF0.9270833333333334
aF0.71875
aI0
aF0.4166666666666667
aF0.90625
aF1.0
aI0
aF1.0
aF1.0
aF0.9895833333333334
assS'velocity'
p87
(dp88
g3
(lp89
I0
aI0
aI0
aF0.935860058309038
aI0
aF1.0
aI0
aI0
aI0
aF0.9830028328611898
aF0.7084870848708487
aF0.9862637362637363
aI0
asg5
(lp90
I0
aI0
aI0
aF0.9375
aI0
aF1.0
aI0
aI0
aI0
aF0.9816176470588235
aF0.6838235294117647
aF0.9852941176470589
aI0
assS'log4j'
p91
(dp92
g3
(lp93
I0
aI0
aI0
aI0
aI0
aI0
aI0
aI0
aI0
aI0
aF0.7234042553191489
aF0.9918367346938776
aF0.9922480620155039
asg5
(lp94
I0
aI0
aI0
aI0
aI0
aI0
aI0
aI0
aI0
aI0
aF0.5608465608465608
aF0.9417989417989417
aF0.9947089947089947
ass.